(lp0
(S'cppflags'
p1
ccopy_reg
_reconstructor
p2
(cino.utils
SpaceList
p3
c__builtin__
list
p4
(lp5
S'-mmcu=atmega328p'
p6
aS'-DF_CPU=16000000L'
p7
aS'-DARDUINO=105'
p8
aS'-I/Applications/Arduino.app/Contents/Resources/Java/hardware/arduino/cores/arduino'
p9
aS'-ffunction-sections'
p10
aS'-fdata-sections'
p11
aS'-g'
p12
aS'-Os'
p13
aS'-w'
p14
aS'-I/Applications/Arduino.app/Contents/Resources/Java/hardware/arduino/variants/standard'
p15
aS'-I/Applications/Arduino.app/Contents/Resources/Java/hardware/arduino/cores/arduino'
p16
aS'-I/Applications/Arduino.app/Contents/Resources/Java/hardware/arduino/cores/arduino/avr-libc'
p17
atp18
Rp19
tp20
a(S'cxx'
p21
S'/Applications/Arduino.app/Contents/Resources/Java/hardware/tools/avr/bin/avr-g++'
p22
tp23
a(S'version.txt'
p24
S'/Applications/Arduino.app/Contents/Resources/Java/lib/version.txt'
p25
tp26
a(S'used_libs'
p27
(lp28
S'/Applications/Arduino.app/Contents/Resources/Java/hardware/arduino/cores/arduino'
p29
atp30
a(S'cc'
p31
S'/Applications/Arduino.app/Contents/Resources/Java/hardware/tools/avr/bin/avr-gcc'
p32
tp33
a(S'serial'
p34
S'/usr/local/bin/picocom'
p35
tp36
a(S'make'
p37
S'/Applications/Arduino.app/Contents/Resources/Java/hardware/tools/avr/bin/make'
p38
tp39
a(S'cflags'
p40
g2
(g3
g4
(lp41
tp42
Rp43
tp44
a(S'build_dir'
p45
S'.build/uno'
p46
tp47
a(S'arduino_core_dir'
p48
g29
tp49
a(S'boards.txt'
p50
S'/Applications/Arduino.app/Contents/Resources/Java/hardware/arduino/boards.txt'
p51
tp52
a(S'cxxflags'
p53
g2
(g3
g4
(lp54
S'-fno-exceptions'
p55
atp56
Rp57
tp58
a(S'arduino_variants_dir'
p59
S'/Applications/Arduino.app/Contents/Resources/Java/hardware/arduino/variants'
p60
tp61
a(S'ar'
p62
S'/Applications/Arduino.app/Contents/Resources/Java/hardware/tools/avr/bin/avr-ar'
p63
tp64
a(S'names'
p65
(dp66
S'cpp'
p67
S'%s.cpp'
p68
sS'obj'
p69
S'%s.o'
p70
sS'lib'
p71
S'lib%s.a'
p72
sS'deps'
p73
S'%s.d'
p74
stp75
a(g73
g2
(g3
g4
(lp76
S'.build/atmega328/src/dependencies.d'
p77
aS'.build/atmega328/arduino/dependencies.d'
p78
atp79
Rp80
tp81
a(S'arduino_libraries_dir'
p82
S'/Applications/Arduino.app/Contents/Resources/Java/libraries'
p83
tp84
a(S'arduino_lib_version'
p85
g2
(cino.environment
Version
p86
c__builtin__
tuple
p87
(I1
I0
I5
tp88
tp89
Rp90
tp91
a(S'objcopy'
p92
S'/Applications/Arduino.app/Contents/Resources/Java/hardware/tools/avr/bin/avr-objcopy'
p93
tp94
a(S'board_models'
p95
cino.environment
BoardModels
p96
((lp97
(lp98
S'uno'
p99
a(dp100
S'bootloader'
p101
(dp102
S'extended_fuses'
p103
S'0x05'
p104
sS'high_fuses'
p105
S'0xde'
p106
sS'low_fuses'
p107
S'0xff'
p108
sS'lock_bits'
p109
S'0x0F'
p110
sS'file'
p111
S'optiboot_atmega328.hex'
p112
sS'path'
p113
S'optiboot'
p114
sS'unlock_bits'
p115
S'0x3F'
p116
ssS'upload'
p117
(dp118
S'protocol'
p119
S'arduino'
p120
sS'maximum_size'
p121
S'32256'
p122
sS'speed'
p123
S'115200'
p124
ssS'build'
p125
(dp126
S'core'
p127
S'arduino'
p128
sS'mcu'
p129
S'atmega328p'
p130
sS'f_cpu'
p131
S'16000000L'
p132
sS'variant'
p133
S'standard'
p134
ssS'name'
p135
S'Arduino Uno'
p136
saa(lp137
S'atmega328'
p138
a(dp139
S'bootloader'
p140
(dp141
S'extended_fuses'
p142
S'0x05'
p143
sS'high_fuses'
p144
S'0xDA'
p145
sS'low_fuses'
p146
S'0xFF'
p147
sS'lock_bits'
p148
S'0x0F'
p149
sS'file'
p150
S'ATmegaBOOT_168_atmega328.hex'
p151
sS'path'
p152
S'atmega'
p153
sS'unlock_bits'
p154
S'0x3F'
p155
ssS'upload'
p156
(dp157
S'protocol'
p158
S'arduino'
p159
sS'maximum_size'
p160
S'30720'
p161
sS'speed'
p162
S'57600'
p163
ssS'build'
p164
(dp165
S'core'
p166
S'arduino'
p167
sS'mcu'
p168
S'atmega328p'
p169
sS'f_cpu'
p170
S'16000000L'
p171
sS'variant'
p172
S'standard'
p173
ssS'name'
p174
S'Arduino Duemilanove w/ ATmega328'
p175
saa(lp176
S'diecimila'
p177
a(dp178
S'bootloader'
p179
(dp180
S'extended_fuses'
p181
S'0x00'
p182
sS'high_fuses'
p183
S'0xdd'
p184
sS'low_fuses'
p185
S'0xff'
p186
sS'lock_bits'
p187
S'0x0F'
p188
sS'file'
p189
S'ATmegaBOOT_168_diecimila.hex'
p190
sS'path'
p191
S'atmega'
p192
sS'unlock_bits'
p193
S'0x3F'
p194
ssS'upload'
p195
(dp196
S'protocol'
p197
S'arduino'
p198
sS'maximum_size'
p199
S'14336'
p200
sS'speed'
p201
S'19200'
p202
ssS'build'
p203
(dp204
S'core'
p205
S'arduino'
p206
sS'mcu'
p207
S'atmega168'
p208
sS'f_cpu'
p209
S'16000000L'
p210
sS'variant'
p211
S'standard'
p212
ssS'name'
p213
S'Arduino Diecimila or Duemilanove w/ ATmega168'
p214
saa(lp215
S'nano328'
p216
a(dp217
S'bootloader'
p218
(dp219
S'extended_fuses'
p220
S'0x05'
p221
sS'high_fuses'
p222
S'0xDA'
p223
sS'low_fuses'
p224
S'0xFF'
p225
sS'lock_bits'
p226
S'0x0F'
p227
sS'file'
p228
S'ATmegaBOOT_168_atmega328.hex'
p229
sS'path'
p230
S'atmega'
p231
sS'unlock_bits'
p232
S'0x3F'
p233
ssS'upload'
p234
(dp235
S'protocol'
p236
S'arduino'
p237
sS'maximum_size'
p238
S'30720'
p239
sS'speed'
p240
S'57600'
p241
ssS'build'
p242
(dp243
S'core'
p244
S'arduino'
p245
sS'mcu'
p246
S'atmega328p'
p247
sS'f_cpu'
p248
S'16000000L'
p249
sS'variant'
p250
S'eightanaloginputs'
p251
ssS'name'
p252
S'Arduino Nano w/ ATmega328'
p253
saa(lp254
S'nano'
p255
a(dp256
S'bootloader'
p257
(dp258
S'extended_fuses'
p259
S'0x00'
p260
sS'high_fuses'
p261
S'0xdd'
p262
sS'low_fuses'
p263
S'0xff'
p264
sS'lock_bits'
p265
S'0x0F'
p266
sS'file'
p267
S'ATmegaBOOT_168_diecimila.hex'
p268
sS'path'
p269
S'atmega'
p270
sS'unlock_bits'
p271
S'0x3F'
p272
ssS'upload'
p273
(dp274
S'protocol'
p275
S'arduino'
p276
sS'maximum_size'
p277
S'14336'
p278
sS'speed'
p279
S'19200'
p280
ssS'build'
p281
(dp282
S'core'
p283
S'arduino'
p284
sS'mcu'
p285
S'atmega168'
p286
sS'f_cpu'
p287
S'16000000L'
p288
sS'variant'
p289
S'eightanaloginputs'
p290
ssS'name'
p291
S'Arduino Nano w/ ATmega168'
p292
saa(lp293
S'mega2560'
p294
a(dp295
S'bootloader'
p296
(dp297
S'extended_fuses'
p298
S'0xFD'
p299
sS'high_fuses'
p300
S'0xD8'
p301
sS'low_fuses'
p302
S'0xFF'
p303
sS'lock_bits'
p304
S'0x0F'
p305
sS'file'
p306
S'stk500boot_v2_mega2560.hex'
p307
sS'path'
p308
S'stk500v2'
p309
sS'unlock_bits'
p310
S'0x3F'
p311
ssS'upload'
p312
(dp313
S'protocol'
p314
S'wiring'
p315
sS'maximum_size'
p316
S'258048'
p317
sS'speed'
p318
S'115200'
p319
ssS'build'
p320
(dp321
S'core'
p322
S'arduino'
p323
sS'mcu'
p324
S'atmega2560'
p325
sS'f_cpu'
p326
S'16000000L'
p327
sS'variant'
p328
S'mega'
p329
ssS'name'
p330
S'Arduino Mega 2560 or Mega ADK'
p331
saa(lp332
S'mega'
p333
a(dp334
S'bootloader'
p335
(dp336
S'extended_fuses'
p337
S'0xF5'
p338
sS'high_fuses'
p339
S'0xDA'
p340
sS'low_fuses'
p341
S'0xFF'
p342
sS'lock_bits'
p343
S'0x0F'
p344
sS'file'
p345
S'ATmegaBOOT_168_atmega1280.hex'
p346
sS'path'
p347
S'atmega'
p348
sS'unlock_bits'
p349
S'0x3F'
p350
ssS'upload'
p351
(dp352
S'protocol'
p353
S'arduino'
p354
sS'maximum_size'
p355
S'126976'
p356
sS'speed'
p357
S'57600'
p358
ssS'build'
p359
(dp360
S'core'
p361
S'arduino'
p362
sS'mcu'
p363
S'atmega1280'
p364
sS'f_cpu'
p365
S'16000000L'
p366
sS'variant'
p367
S'mega'
p368
ssS'name'
p369
S'Arduino Mega (ATmega1280)'
p370
saa(lp371
S'leonardo'
p372
a(dp373
S'bootloader'
p374
(dp375
S'extended_fuses'
p376
S'0xcb'
p377
sS'high_fuses'
p378
S'0xd8'
p379
sS'low_fuses'
p380
S'0xff'
p381
sS'lock_bits'
p382
S'0x2F'
p383
sS'file'
p384
S'Caterina-Leonardo.hex'
p385
sS'path'
p386
S'caterina'
p387
sS'unlock_bits'
p388
S'0x3F'
p389
ssS'upload'
p390
(dp391
S'protocol'
p392
S'avr109'
p393
sS'maximum_size'
p394
S'28672'
p395
sS'speed'
p396
S'57600'
p397
sS'disable_flushing'
p398
S'true'
p399
ssS'build'
p400
(dp401
S'core'
p402
S'arduino'
p403
sS'f_cpu'
p404
S'16000000L'
p405
sS'vid'
p406
S'0x2341'
p407
sS'pid'
p408
S'0x8036'
p409
sS'variant'
p410
S'leonardo'
p411
sS'mcu'
p412
S'atmega32u4'
p413
ssS'name'
p414
S'Arduino Leonardo'
p415
saa(lp416
S'esplora'
p417
a(dp418
S'bootloader'
p419
(dp420
S'extended_fuses'
p421
S'0xcb'
p422
sS'high_fuses'
p423
S'0xd8'
p424
sS'low_fuses'
p425
S'0xff'
p426
sS'lock_bits'
p427
S'0x2F'
p428
sS'file'
p429
S'Caterina-Esplora.hex'
p430
sS'path'
p431
S'caterina'
p432
sS'unlock_bits'
p433
S'0x3F'
p434
ssS'upload'
p435
(dp436
S'protocol'
p437
S'avr109'
p438
sS'maximum_size'
p439
S'28672'
p440
sS'speed'
p441
S'57600'
p442
sS'disable_flushing'
p443
S'true'
p444
ssS'build'
p445
(dp446
S'core'
p447
S'arduino'
p448
sS'f_cpu'
p449
S'16000000L'
p450
sS'vid'
p451
S'0x2341'
p452
sS'pid'
p453
S'0x803C'
p454
sS'variant'
p455
S'leonardo'
p456
sS'mcu'
p457
S'atmega32u4'
p458
ssS'name'
p459
S'Arduino Esplora'
p460
saa(lp461
S'micro'
p462
a(dp463
S'bootloader'
p464
(dp465
S'extended_fuses'
p466
S'0xcb'
p467
sS'high_fuses'
p468
S'0xd8'
p469
sS'low_fuses'
p470
S'0xff'
p471
sS'lock_bits'
p472
S'0x2F'
p473
sS'file'
p474
S'Caterina-Micro.hex'
p475
sS'path'
p476
S'caterina'
p477
sS'unlock_bits'
p478
S'0x3F'
p479
ssS'upload'
p480
(dp481
S'protocol'
p482
S'avr109'
p483
sS'maximum_size'
p484
S'28672'
p485
sS'speed'
p486
S'57600'
p487
sS'disable_flushing'
p488
S'true'
p489
ssS'build'
p490
(dp491
S'core'
p492
S'arduino'
p493
sS'f_cpu'
p494
S'16000000L'
p495
sS'vid'
p496
S'0x2341'
p497
sS'pid'
p498
S'0x8037'
p499
sS'variant'
p500
S'micro'
p501
sS'mcu'
p502
S'atmega32u4'
p503
ssS'name'
p504
S'Arduino Micro'
p505
saa(lp506
S'mini328'
p507
a(dp508
S'bootloader'
p509
(dp510
S'extended_fuses'
p511
S'0x05'
p512
sS'high_fuses'
p513
S'0xd8'
p514
sS'low_fuses'
p515
S'0xff'
p516
sS'lock_bits'
p517
S'0x0F'
p518
sS'file'
p519
S'optiboot_atmega328-Mini.hex'
p520
sS'path'
p521
S'optiboot'
p522
sS'unlock_bits'
p523
S'0x3F'
p524
ssS'upload'
p525
(dp526
S'protocol'
p527
S'arduino'
p528
sS'maximum_size'
p529
S'28672'
p530
sS'speed'
p531
S'115200'
p532
ssS'build'
p533
(dp534
S'core'
p535
S'arduino'
p536
sS'mcu'
p537
S'atmega328p'
p538
sS'f_cpu'
p539
S'16000000L'
p540
sS'variant'
p541
S'eightanaloginputs'
p542
ssS'name'
p543
S'Arduino Mini w/ ATmega328'
p544
saa(lp545
S'mini'
p546
a(dp547
S'bootloader'
p548
(dp549
S'extended_fuses'
p550
S'0x00'
p551
sS'high_fuses'
p552
S'0xdd'
p553
sS'low_fuses'
p554
S'0xff'
p555
sS'lock_bits'
p556
S'0x0F'
p557
sS'file'
p558
S'ATmegaBOOT_168_ng.hex'
p559
sS'path'
p560
S'atmega'
p561
sS'unlock_bits'
p562
S'0x3F'
p563
ssS'upload'
p564
(dp565
S'protocol'
p566
S'arduino'
p567
sS'maximum_size'
p568
S'14336'
p569
sS'speed'
p570
S'19200'
p571
ssS'build'
p572
(dp573
S'core'
p574
S'arduino'
p575
sS'mcu'
p576
S'atmega168'
p577
sS'f_cpu'
p578
S'16000000L'
p579
sS'variant'
p580
S'eightanaloginputs'
p581
ssS'name'
p582
S'Arduino Mini w/ ATmega168'
p583
saa(lp584
S'ethernet'
p585
a(dp586
S'bootloader'
p587
(dp588
S'extended_fuses'
p589
S'0x05'
p590
sS'high_fuses'
p591
S'0xde'
p592
sS'low_fuses'
p593
S'0xff'
p594
sS'lock_bits'
p595
S'0x0F'
p596
sS'file'
p597
S'optiboot_atmega328.hex'
p598
sS'path'
p599
S'optiboot'
p600
sS'unlock_bits'
p601
S'0x3F'
p602
ssS'upload'
p603
(dp604
S'protocol'
p605
S'arduino'
p606
sS'maximum_size'
p607
S'32256'
p608
sS'speed'
p609
S'115200'
p610
ssS'build'
p611
(dp612
S'variant'
p613
S'standard'
p614
sS'mcu'
p615
S'atmega328p'
p616
sS'f_cpu'
p617
S'16000000L'
p618
sS'core'
p619
S'arduino'
p620
ssS'name'
p621
S'Arduino Ethernet'
p622
saa(lp623
S'fio'
p624
a(dp625
S'bootloader'
p626
(dp627
S'extended_fuses'
p628
S'0x05'
p629
sS'high_fuses'
p630
S'0xDA'
p631
sS'low_fuses'
p632
S'0xFF'
p633
sS'lock_bits'
p634
S'0x0F'
p635
sS'file'
p636
S'ATmegaBOOT_168_atmega328_pro_8MHz.hex'
p637
sS'path'
p638
S'arduino:atmega'
p639
sS'unlock_bits'
p640
S'0x3F'
p641
ssS'upload'
p642
(dp643
S'protocol'
p644
S'arduino'
p645
sS'maximum_size'
p646
S'30720'
p647
sS'speed'
p648
S'57600'
p649
ssS'build'
p650
(dp651
S'core'
p652
S'arduino'
p653
sS'mcu'
p654
S'atmega328p'
p655
sS'f_cpu'
p656
S'8000000L'
p657
sS'variant'
p658
S'eightanaloginputs'
p659
ssS'name'
p660
S'Arduino Fio'
p661
saa(lp662
S'bt328'
p663
a(dp664
S'bootloader'
p665
(dp666
S'extended_fuses'
p667
S'0x05'
p668
sS'high_fuses'
p669
S'0xd8'
p670
sS'low_fuses'
p671
S'0xff'
p672
sS'lock_bits'
p673
S'0x0F'
p674
sS'file'
p675
S'ATmegaBOOT_168_atmega328_bt.hex'
p676
sS'path'
p677
S'bt'
p678
sS'unlock_bits'
p679
S'0x3F'
p680
ssS'upload'
p681
(dp682
S'protocol'
p683
S'arduino'
p684
sS'maximum_size'
p685
S'28672'
p686
sS'speed'
p687
S'19200'
p688
sS'disable_flushing'
p689
S'true'
p690
ssS'build'
p691
(dp692
S'core'
p693
S'arduino'
p694
sS'mcu'
p695
S'atmega328p'
p696
sS'f_cpu'
p697
S'16000000L'
p698
sS'variant'
p699
S'eightanaloginputs'
p700
ssS'name'
p701
S'Arduino BT w/ ATmega328'
p702
saa(lp703
S'bt'
p704
a(dp705
S'bootloader'
p706
(dp707
S'extended_fuses'
p708
S'0x00'
p709
sS'high_fuses'
p710
S'0xdd'
p711
sS'low_fuses'
p712
S'0xff'
p713
sS'lock_bits'
p714
S'0x0F'
p715
sS'file'
p716
S'ATmegaBOOT_168.hex'
p717
sS'path'
p718
S'bt'
p719
sS'unlock_bits'
p720
S'0x3F'
p721
ssS'upload'
p722
(dp723
S'protocol'
p724
S'arduino'
p725
sS'maximum_size'
p726
S'14336'
p727
sS'speed'
p728
S'19200'
p729
sS'disable_flushing'
p730
S'true'
p731
ssS'build'
p732
(dp733
S'core'
p734
S'arduino'
p735
sS'mcu'
p736
S'atmega168'
p737
sS'f_cpu'
p738
S'16000000L'
p739
sS'variant'
p740
S'eightanaloginputs'
p741
ssS'name'
p742
S'Arduino BT w/ ATmega168'
p743
saa(lp744
S'LilyPadUSB'
p745
a(dp746
S'bootloader'
p747
(dp748
S'extended_fuses'
p749
S'0xce'
p750
sS'high_fuses'
p751
S'0xd8'
p752
sS'low_fuses'
p753
S'0xff'
p754
sS'lock_bits'
p755
S'0x2F'
p756
sS'file'
p757
S'Caterina-LilyPadUSB.hex'
p758
sS'path'
p759
S'caterina-LilyPadUSB'
p760
sS'unlock_bits'
p761
S'0x3F'
p762
ssS'upload'
p763
(dp764
S'protocol'
p765
S'avr109'
p766
sS'maximum_size'
p767
S'28672'
p768
sS'speed'
p769
S'57600'
p770
sS'disable_flushing'
p771
S'true'
p772
ssS'build'
p773
(dp774
S'core'
p775
S'arduino'
p776
sS'f_cpu'
p777
S'8000000L'
p778
sS'vid'
p779
S'0x1B4F'
p780
sS'pid'
p781
S'0x9208'
p782
sS'variant'
p783
S'leonardo'
p784
sS'mcu'
p785
S'atmega32u4'
p786
ssS'name'
p787
S'LilyPad Arduino USB'
p788
saa(lp789
S'lilypad328'
p790
a(dp791
S'bootloader'
p792
(dp793
S'extended_fuses'
p794
S'0x05'
p795
sS'high_fuses'
p796
S'0xDA'
p797
sS'low_fuses'
p798
S'0xFF'
p799
sS'lock_bits'
p800
S'0x0F'
p801
sS'file'
p802
S'ATmegaBOOT_168_atmega328_pro_8MHz.hex'
p803
sS'path'
p804
S'atmega'
p805
sS'unlock_bits'
p806
S'0x3F'
p807
ssS'upload'
p808
(dp809
S'protocol'
p810
S'arduino'
p811
sS'maximum_size'
p812
S'30720'
p813
sS'speed'
p814
S'57600'
p815
ssS'build'
p816
(dp817
S'core'
p818
S'arduino'
p819
sS'mcu'
p820
S'atmega328p'
p821
sS'f_cpu'
p822
S'8000000L'
p823
sS'variant'
p824
S'standard'
p825
ssS'name'
p826
S'LilyPad Arduino w/ ATmega328'
p827
saa(lp828
S'lilypad'
p829
a(dp830
S'bootloader'
p831
(dp832
S'extended_fuses'
p833
S'0x00'
p834
sS'high_fuses'
p835
S'0xdd'
p836
sS'low_fuses'
p837
S'0xe2'
p838
sS'lock_bits'
p839
S'0x0F'
p840
sS'file'
p841
S'LilyPadBOOT_168.hex'
p842
sS'path'
p843
S'lilypad'
p844
sS'unlock_bits'
p845
S'0x3F'
p846
ssS'upload'
p847
(dp848
S'protocol'
p849
S'arduino'
p850
sS'maximum_size'
p851
S'14336'
p852
sS'speed'
p853
S'19200'
p854
ssS'build'
p855
(dp856
S'core'
p857
S'arduino'
p858
sS'mcu'
p859
S'atmega168'
p860
sS'f_cpu'
p861
S'8000000L'
p862
sS'variant'
p863
S'standard'
p864
ssS'name'
p865
S'LilyPad Arduino w/ ATmega168'
p866
saa(lp867
S'pro5v328'
p868
a(dp869
S'bootloader'
p870
(dp871
S'extended_fuses'
p872
S'0x05'
p873
sS'high_fuses'
p874
S'0xDA'
p875
sS'low_fuses'
p876
S'0xFF'
p877
sS'lock_bits'
p878
S'0x0F'
p879
sS'file'
p880
S'ATmegaBOOT_168_atmega328.hex'
p881
sS'path'
p882
S'atmega'
p883
sS'unlock_bits'
p884
S'0x3F'
p885
ssS'upload'
p886
(dp887
S'protocol'
p888
S'arduino'
p889
sS'maximum_size'
p890
S'30720'
p891
sS'speed'
p892
S'57600'
p893
ssS'build'
p894
(dp895
S'core'
p896
S'arduino'
p897
sS'mcu'
p898
S'atmega328p'
p899
sS'f_cpu'
p900
S'16000000L'
p901
sS'variant'
p902
S'standard'
p903
ssS'name'
p904
S'Arduino Pro or Pro Mini (5V, 16 MHz) w/ ATmega328'
p905
saa(lp906
S'pro5v'
p907
a(dp908
S'bootloader'
p909
(dp910
S'extended_fuses'
p911
S'0x00'
p912
sS'high_fuses'
p913
S'0xdd'
p914
sS'low_fuses'
p915
S'0xff'
p916
sS'lock_bits'
p917
S'0x0F'
p918
sS'file'
p919
S'ATmegaBOOT_168_diecimila.hex'
p920
sS'path'
p921
S'atmega'
p922
sS'unlock_bits'
p923
S'0x3F'
p924
ssS'upload'
p925
(dp926
S'protocol'
p927
S'arduino'
p928
sS'maximum_size'
p929
S'14336'
p930
sS'speed'
p931
S'19200'
p932
ssS'build'
p933
(dp934
S'core'
p935
S'arduino'
p936
sS'mcu'
p937
S'atmega168'
p938
sS'f_cpu'
p939
S'16000000L'
p940
sS'variant'
p941
S'standard'
p942
ssS'name'
p943
S'Arduino Pro or Pro Mini (5V, 16 MHz) w/ ATmega168'
p944
saa(lp945
S'pro328'
p946
a(dp947
S'bootloader'
p948
(dp949
S'extended_fuses'
p950
S'0x05'
p951
sS'high_fuses'
p952
S'0xDA'
p953
sS'low_fuses'
p954
S'0xFF'
p955
sS'lock_bits'
p956
S'0x0F'
p957
sS'file'
p958
S'ATmegaBOOT_168_atmega328_pro_8MHz.hex'
p959
sS'path'
p960
S'atmega'
p961
sS'unlock_bits'
p962
S'0x3F'
p963
ssS'upload'
p964
(dp965
S'protocol'
p966
S'arduino'
p967
sS'maximum_size'
p968
S'30720'
p969
sS'speed'
p970
S'57600'
p971
ssS'build'
p972
(dp973
S'core'
p974
S'arduino'
p975
sS'mcu'
p976
S'atmega328p'
p977
sS'f_cpu'
p978
S'8000000L'
p979
sS'variant'
p980
S'standard'
p981
ssS'name'
p982
S'Arduino Pro or Pro Mini (3.3V, 8 MHz) w/ ATmega328'
p983
saa(lp984
S'pro'
p985
a(dp986
S'bootloader'
p987
(dp988
S'extended_fuses'
p989
S'0x00'
p990
sS'high_fuses'
p991
S'0xdd'
p992
sS'low_fuses'
p993
S'0xc6'
p994
sS'lock_bits'
p995
S'0x0F'
p996
sS'file'
p997
S'ATmegaBOOT_168_pro_8MHz.hex'
p998
sS'path'
p999
S'atmega'
p1000
sS'unlock_bits'
p1001
S'0x3F'
p1002
ssS'upload'
p1003
(dp1004
S'protocol'
p1005
S'arduino'
p1006
sS'maximum_size'
p1007
S'14336'
p1008
sS'speed'
p1009
S'19200'
p1010
ssS'build'
p1011
(dp1012
S'core'
p1013
S'arduino'
p1014
sS'mcu'
p1015
S'atmega168'
p1016
sS'f_cpu'
p1017
S'8000000L'
p1018
sS'variant'
p1019
S'standard'
p1020
ssS'name'
p1021
S'Arduino Pro or Pro Mini (3.3V, 8 MHz) w/ ATmega168'
p1022
saa(lp1023
S'atmega168'
p1024
a(dp1025
S'bootloader'
p1026
(dp1027
S'extended_fuses'
p1028
S'0x00'
p1029
sS'high_fuses'
p1030
S'0xdd'
p1031
sS'low_fuses'
p1032
S'0xff'
p1033
sS'lock_bits'
p1034
S'0x0F'
p1035
sS'file'
p1036
S'ATmegaBOOT_168_ng.hex'
p1037
sS'path'
p1038
S'atmega'
p1039
sS'unlock_bits'
p1040
S'0x3F'
p1041
ssS'upload'
p1042
(dp1043
S'protocol'
p1044
S'arduino'
p1045
sS'maximum_size'
p1046
S'14336'
p1047
sS'speed'
p1048
S'19200'
p1049
ssS'build'
p1050
(dp1051
S'core'
p1052
S'arduino'
p1053
sS'mcu'
p1054
S'atmega168'
p1055
sS'f_cpu'
p1056
S'16000000L'
p1057
sS'variant'
p1058
S'standard'
p1059
ssS'name'
p1060
S'Arduino NG or older w/ ATmega168'
p1061
saa(lp1062
S'atmega8'
p1063
a(dp1064
S'bootloader'
p1065
(dp1066
S'high_fuses'
p1067
S'0xca'
p1068
sS'low_fuses'
p1069
S'0xdf'
p1070
sS'lock_bits'
p1071
S'0x0F'
p1072
sS'file'
p1073
S'ATmegaBOOT-prod-firmware-2009-11-07.hex'
p1074
sS'path'
p1075
S'atmega8'
p1076
sS'unlock_bits'
p1077
S'0x3F'
p1078
ssS'upload'
p1079
(dp1080
S'protocol'
p1081
S'arduino'
p1082
sS'maximum_size'
p1083
S'7168'
p1084
sS'speed'
p1085
S'19200'
p1086
ssS'build'
p1087
(dp1088
S'core'
p1089
S'arduino'
p1090
sS'mcu'
p1091
S'atmega8'
p1092
sS'f_cpu'
p1093
S'16000000L'
p1094
sS'variant'
p1095
S'standard'
p1096
ssS'name'
p1097
S'Arduino NG or older w/ ATmega8'
p1098
saa(lp1099
S'robotControl'
p1100
a(dp1101
S'bootloader'
p1102
(dp1103
S'extended_fuses'
p1104
S'0xcb'
p1105
sS'high_fuses'
p1106
S'0xd8'
p1107
sS'low_fuses'
p1108
S'0xff'
p1109
sS'lock_bits'
p1110
S'0x2F'
p1111
sS'file'
p1112
S'Caterina-Robot-Control.hex'
p1113
sS'path'
p1114
S'caterina-Arduino_Robot'
p1115
sS'unlock_bits'
p1116
S'0x3F'
p1117
ssS'upload'
p1118
(dp1119
S'protocol'
p1120
S'avr109'
p1121
sS'maximum_size'
p1122
S'28672'
p1123
sS'speed'
p1124
S'57600'
p1125
sS'disable_flushing'
p1126
S'true'
p1127
ssS'build'
p1128
(dp1129
S'core'
p1130
S'robot'
p1131
sS'f_cpu'
p1132
S'16000000L'
p1133
sS'vid'
p1134
S'0x2341'
p1135
sS'pid'
p1136
S'0x8038'
p1137
sS'variant'
p1138
S'robot_control'
p1139
sS'mcu'
p1140
S'atmega32u4'
p1141
ssS'name'
p1142
S'Arduino Robot Control'
p1143
saa(lp1144
S'robotMotor'
p1145
a(dp1146
S'bootloader'
p1147
(dp1148
S'extended_fuses'
p1149
S'0xcb'
p1150
sS'high_fuses'
p1151
S'0xd8'
p1152
sS'low_fuses'
p1153
S'0xff'
p1154
sS'lock_bits'
p1155
S'0x2F'
p1156
sS'file'
p1157
S'Caterina-Robot-Motor.hex'
p1158
sS'path'
p1159
S'caterina-Arduino_Robot'
p1160
sS'unlock_bits'
p1161
S'0x3F'
p1162
ssS'upload'
p1163
(dp1164
S'protocol'
p1165
S'avr109'
p1166
sS'maximum_size'
p1167
S'28672'
p1168
sS'speed'
p1169
S'57600'
p1170
sS'disable_flushing'
p1171
S'true'
p1172
ssS'build'
p1173
(dp1174
S'core'
p1175
S'robot'
p1176
sS'f_cpu'
p1177
S'16000000L'
p1178
sS'vid'
p1179
S'0x2341'
p1180
sS'pid'
p1181
S'0x8039'
p1182
sS'variant'
p1183
S'robot_motor'
p1184
sS'mcu'
p1185
S'atmega32u4'
p1186
ssS'name'
p1187
S'Arduino Robot Motor'
p1188
saatp1189
Rp1190
(dp1191
S'default'
p1192
S'uno'
p1193
sbtp1194
a(S'ldflags'
p1195
g2
(g3
g4
(lp1196
g6
aS'-Wl,-Os'
p1197
aS'-Wl,--gc-sections'
p1198
atp1199
Rp1200
tp1201
a.